target datalayout = "e-m:e-p270:32:32-p271:32:32-p272:64:64-i64:64-i128:128-f80:128-n8:16:32:64-S128"
target triple = "x86_64-pc-linux-gnu"

%struct._X11InputMethodData = type { ptr, ptr, ptr, ptr, ptr, ptr, ptr, i32 }
%struct._X11InputMethodGRefNode = type { ptr, ptr }
%struct.JNINativeInterface_ = type { ptr, ptr, ptr, ptr, ptr, ptr, ptr, ptr, ptr, ptr, ptr, ptr, ptr, ptr, ptr, ptr, ptr, ptr, ptr, ptr, ptr, ptr, ptr, ptr, ptr, ptr, ptr, ptr, ptr, ptr, ptr, ptr, ptr, ptr, ptr, ptr, ptr, ptr, ptr, ptr, ptr, ptr, ptr, ptr, ptr, ptr, ptr, ptr, ptr, ptr, ptr, ptr, ptr, ptr, ptr, ptr, ptr, ptr, ptr, ptr, ptr, ptr, ptr, ptr, ptr, ptr, ptr, ptr, ptr, ptr, ptr, ptr, ptr, ptr, ptr, ptr, ptr, ptr, ptr, ptr, ptr, ptr, ptr, ptr, ptr, ptr, ptr, ptr, ptr, ptr, ptr, ptr, ptr, ptr, ptr, ptr, ptr, ptr, ptr, ptr, ptr, ptr, ptr, ptr, ptr, ptr, ptr, ptr, ptr, ptr, ptr, ptr, ptr, ptr, ptr, ptr, ptr, ptr, ptr, ptr, ptr, ptr, ptr, ptr, ptr, ptr, ptr, ptr, ptr, ptr, ptr, ptr, ptr, ptr, ptr, ptr, ptr, ptr, ptr, ptr, ptr, ptr, ptr, ptr, ptr, ptr, ptr, ptr, ptr, ptr, ptr, ptr, ptr, ptr, ptr, ptr, ptr, ptr, ptr, ptr, ptr, ptr, ptr, ptr, ptr, ptr, ptr, ptr, ptr, ptr, ptr, ptr, ptr, ptr, ptr, ptr, ptr, ptr, ptr, ptr, ptr, ptr, ptr, ptr, ptr, ptr, ptr, ptr, ptr, ptr, ptr, ptr, ptr, ptr, ptr, ptr, ptr, ptr, ptr, ptr, ptr, ptr, ptr, ptr, ptr, ptr, ptr, ptr, ptr, ptr, ptr, ptr, ptr, ptr, ptr, ptr, ptr, ptr, ptr, ptr, ptr, ptr, ptr, ptr, ptr, ptr, ptr, ptr, ptr, ptr, ptr, ptr, ptr, ptr, ptr }
%struct.StatusWindow = type { i64, i64, i64, i32, i32, i32, i32, ptr, ptr, ptr, ptr, i32, i32, i32, i32, i32, [100 x i8], ptr, i32, i32, i32 }

@x11InputMethodGRefListHead = hidden global ptr null, align 8
@awt_display = external global ptr, align 8

; Function Attrs: nounwind uwtable
define internal void @removeX11InputMethodGRefFromList(ptr noundef %0) #0 {
  %2 = alloca ptr, align 8
  %3 = alloca ptr, align 8
  %4 = alloca ptr, align 8
  store ptr %0, ptr %2, align 8
  store ptr null, ptr %3, align 8
  %5 = load ptr, ptr @x11InputMethodGRefListHead, align 8
  store ptr %5, ptr %4, align 8
  %6 = load ptr, ptr @x11InputMethodGRefListHead, align 8
  %7 = icmp eq ptr %6, null
  br i1 %7, label %11, label %8

8:                                                ; preds = %1
  %9 = load ptr, ptr %2, align 8
  %10 = icmp eq ptr %9, null
  br i1 %10, label %11, label %12

11:                                               ; preds = %8, %1
  br label %48

12:                                               ; preds = %8
  br label %13

13:                                               ; preds = %23, %12
  %14 = load ptr, ptr %4, align 8
  %15 = icmp ne ptr %14, null
  br i1 %15, label %16, label %28

16:                                               ; preds = %13
  %17 = load ptr, ptr %4, align 8
  %18 = getelementptr inbounds %struct._X11InputMethodGRefNode, ptr %17, i32 0, i32 0
  %19 = load ptr, ptr %18, align 8
  %20 = load ptr, ptr %2, align 8
  %21 = icmp eq ptr %19, %20
  br i1 %21, label %22, label %23

22:                                               ; preds = %16
  br label %28

23:                                               ; preds = %16
  %24 = load ptr, ptr %4, align 8
  store ptr %24, ptr %3, align 8
  %25 = load ptr, ptr %4, align 8
  %26 = getelementptr inbounds %struct._X11InputMethodGRefNode, ptr %25, i32 0, i32 1
  %27 = load ptr, ptr %26, align 8
  store ptr %27, ptr %4, align 8
  br label %13, !llvm.loop !11

28:                                               ; preds = %22, %13
  %29 = load ptr, ptr %4, align 8
  %30 = icmp eq ptr %29, null
  br i1 %30, label %31, label %32

31:                                               ; preds = %28
  br label %48

32:                                               ; preds = %28
  %33 = load ptr, ptr %4, align 8
  %34 = load ptr, ptr @x11InputMethodGRefListHead, align 8
  %35 = icmp eq ptr %33, %34
  br i1 %35, label %36, label %40

36:                                               ; preds = %32
  %37 = load ptr, ptr @x11InputMethodGRefListHead, align 8
  %38 = getelementptr inbounds %struct._X11InputMethodGRefNode, ptr %37, i32 0, i32 1
  %39 = load ptr, ptr %38, align 8
  store ptr %39, ptr @x11InputMethodGRefListHead, align 8
  br label %46

40:                                               ; preds = %32
  %41 = load ptr, ptr %4, align 8
  %42 = getelementptr inbounds %struct._X11InputMethodGRefNode, ptr %41, i32 0, i32 1
  %43 = load ptr, ptr %42, align 8
  %44 = load ptr, ptr %3, align 8
  %45 = getelementptr inbounds %struct._X11InputMethodGRefNode, ptr %44, i32 0, i32 1
  store ptr %43, ptr %45, align 8
  br label %46

46:                                               ; preds = %40, %36
  %47 = load ptr, ptr %4, align 8
  call void @free(ptr noundef %47) #6
  br label %48

48:                                               ; preds = %46, %31, %11
  ret void
}

; Function Attrs: nounwind uwtable
define internal void @freeX11InputMethodData(ptr noundef %0, ptr noundef %1) #0 {
  %3 = alloca ptr, align 8
  %4 = alloca ptr, align 8
  %5 = alloca ptr, align 8
  store ptr %0, ptr %3, align 8
  store ptr %1, ptr %4, align 8
  %6 = load ptr, ptr %4, align 8
  %7 = getelementptr inbounds %struct._X11InputMethodData, ptr %6, i32 0, i32 5
  %8 = load ptr, ptr %7, align 8
  %9 = icmp ne ptr %8, null
  br i1 %9, label %10, label %50

10:                                               ; preds = %2
  %11 = load ptr, ptr %4, align 8
  %12 = getelementptr inbounds %struct._X11InputMethodData, ptr %11, i32 0, i32 5
  %13 = load ptr, ptr %12, align 8
  store ptr %13, ptr %5, align 8
  %14 = load ptr, ptr @awt_display, align 8
  %15 = load ptr, ptr %5, align 8
  %16 = getelementptr inbounds %struct.StatusWindow, ptr %15, i32 0, i32 7
  %17 = load ptr, ptr %16, align 8
  %18 = call i32 @XFreeGC(ptr noundef %14, ptr noundef %17)
  %19 = load ptr, ptr @awt_display, align 8
  %20 = load ptr, ptr %5, align 8
  %21 = getelementptr inbounds %struct.StatusWindow, ptr %20, i32 0, i32 8
  %22 = load ptr, ptr %21, align 8
  %23 = call i32 @XFreeGC(ptr noundef %19, ptr noundef %22)
  %24 = load ptr, ptr @awt_display, align 8
  %25 = load ptr, ptr %5, align 8
  %26 = getelementptr inbounds %struct.StatusWindow, ptr %25, i32 0, i32 9
  %27 = load ptr, ptr %26, align 8
  %28 = call i32 @XFreeGC(ptr noundef %24, ptr noundef %27)
  %29 = load ptr, ptr @awt_display, align 8
  %30 = load ptr, ptr %5, align 8
  %31 = getelementptr inbounds %struct.StatusWindow, ptr %30, i32 0, i32 10
  %32 = load ptr, ptr %31, align 8
  %33 = call i32 @XFreeGC(ptr noundef %29, ptr noundef %32)
  %34 = load ptr, ptr %5, align 8
  %35 = getelementptr inbounds %struct.StatusWindow, ptr %34, i32 0, i32 17
  %36 = load ptr, ptr %35, align 8
  %37 = icmp ne ptr %36, null
  br i1 %37, label %38, label %43

38:                                               ; preds = %10
  %39 = load ptr, ptr @awt_display, align 8
  %40 = load ptr, ptr %5, align 8
  %41 = getelementptr inbounds %struct.StatusWindow, ptr %40, i32 0, i32 17
  %42 = load ptr, ptr %41, align 8
  call void @XFreeFontSet(ptr noundef %39, ptr noundef %42)
  br label %43

43:                                               ; preds = %38, %10
  %44 = load ptr, ptr @awt_display, align 8
  %45 = load ptr, ptr %5, align 8
  %46 = getelementptr inbounds %struct.StatusWindow, ptr %45, i32 0, i32 0
  %47 = load i64, ptr %46, align 8
  %48 = call i32 @XDestroyWindow(ptr noundef %44, i64 noundef %47)
  %49 = load ptr, ptr %5, align 8
  call void @free(ptr noundef %49) #6
  br label %50

50:                                               ; preds = %43, %2
  %51 = load ptr, ptr %4, align 8
  %52 = getelementptr inbounds %struct._X11InputMethodData, ptr %51, i32 0, i32 3
  %53 = load ptr, ptr %52, align 8
  %54 = icmp ne ptr %53, null
  br i1 %54, label %55, label %59

55:                                               ; preds = %50
  %56 = load ptr, ptr %4, align 8
  %57 = getelementptr inbounds %struct._X11InputMethodData, ptr %56, i32 0, i32 3
  %58 = load ptr, ptr %57, align 8
  call void @free(ptr noundef %58) #6
  br label %59

59:                                               ; preds = %55, %50
  %60 = load ptr, ptr %3, align 8
  %61 = icmp ne ptr %60, null
  br i1 %61, label %62, label %74

62:                                               ; preds = %59
  %63 = load ptr, ptr %4, align 8
  %64 = getelementptr inbounds %struct._X11InputMethodData, ptr %63, i32 0, i32 4
  %65 = load ptr, ptr %64, align 8
  call void @removeX11InputMethodGRefFromList(ptr noundef %65)
  %66 = load ptr, ptr %3, align 8
  %67 = load ptr, ptr %66, align 8
  %68 = getelementptr inbounds %struct.JNINativeInterface_, ptr %67, i32 0, i32 22
  %69 = load ptr, ptr %68, align 8
  %70 = load ptr, ptr %3, align 8
  %71 = load ptr, ptr %4, align 8
  %72 = getelementptr inbounds %struct._X11InputMethodData, ptr %71, i32 0, i32 4
  %73 = load ptr, ptr %72, align 8
  call void %69(ptr noundef %70, ptr noundef %73)
  br label %74

74:                                               ; preds = %62, %59
  %75 = load ptr, ptr %4, align 8
  %76 = getelementptr inbounds %struct._X11InputMethodData, ptr %75, i32 0, i32 6
  %77 = load ptr, ptr %76, align 8
  %78 = icmp ne ptr %77, null
  br i1 %78, label %79, label %83

79:                                               ; preds = %74
  %80 = load ptr, ptr %4, align 8
  %81 = getelementptr inbounds %struct._X11InputMethodData, ptr %80, i32 0, i32 6
  %82 = load ptr, ptr %81, align 8
  call void @free(ptr noundef %82) #6
  br label %83

83:                                               ; preds = %79, %74
  %84 = load ptr, ptr %4, align 8
  call void @free(ptr noundef %84) #6
  ret void
}