; Function Attrs: nounwind uwtable
define internal fastcc void @freeX11InputMethodData(ptr noundef %0, ptr nocapture noundef %1) unnamed_addr #2 {
  %3 = getelementptr inbounds i8, ptr %1, i64 40
  %4 = load ptr, ptr %3, align 8
  %.not = icmp eq ptr %4, null
  br i1 %.not, label %30, label %5

5:                                                ; preds = %2
  %6 = load ptr, ptr @awt_display, align 8
  %7 = getelementptr inbounds i8, ptr %4, i64 40
  %8 = load ptr, ptr %7, align 8
  %9 = tail call i32 @XFreeGC(ptr noundef %6, ptr noundef %8) #14
  %10 = load ptr, ptr @awt_display, align 8
  %11 = getelementptr inbounds i8, ptr %4, i64 48
  %12 = load ptr, ptr %11, align 8
  %13 = tail call i32 @XFreeGC(ptr noundef %10, ptr noundef %12) #14
  %14 = load ptr, ptr @awt_display, align 8
  %15 = getelementptr inbounds i8, ptr %4, i64 56
  %16 = load ptr, ptr %15, align 8
  %17 = tail call i32 @XFreeGC(ptr noundef %14, ptr noundef %16) #14
  %18 = load ptr, ptr @awt_display, align 8
  %19 = getelementptr inbounds i8, ptr %4, i64 64
  %20 = load ptr, ptr %19, align 8
  %21 = tail call i32 @XFreeGC(ptr noundef %18, ptr noundef %20) #14
  %22 = getelementptr inbounds i8, ptr %4, i64 192
  %23 = load ptr, ptr %22, align 8
  %.not24 = icmp eq ptr %23, null
  br i1 %.not24, label %26, label %24

24:                                               ; preds = %5
  %25 = load ptr, ptr @awt_display, align 8
  tail call void @XFreeFontSet(ptr noundef %25, ptr noundef nonnull %23) #14
  br label %26

26:                                               ; preds = %24, %5
  %27 = load ptr, ptr @awt_display, align 8
  %28 = load i64, ptr %4, align 8
  %29 = tail call i32 @XDestroyWindow(ptr noundef %27, i64 noundef %28) #14
  tail call void @free(ptr noundef nonnull %4) #14
  br label %30

30:                                               ; preds = %26, %2
  %31 = getelementptr inbounds i8, ptr %1, i64 24
  %32 = load ptr, ptr %31, align 8
  %.not25 = icmp eq ptr %32, null
  br i1 %.not25, label %34, label %33

33:                                               ; preds = %30
  tail call void @free(ptr noundef nonnull %32) #14
  br label %34

34:                                               ; preds = %33, %30
  %.not26 = icmp eq ptr %0, null
  br i1 %.not26, label %59, label %35

35:                                               ; preds = %34
  %36 = getelementptr inbounds i8, ptr %1, i64 32
  %37 = load ptr, ptr %36, align 8
  %38 = load ptr, ptr @x11InputMethodGRefListHead, align 8
  %39 = icmp eq ptr %38, null
  %40 = icmp eq ptr %37, null
  %or.cond.i = or i1 %40, %39
  br i1 %or.cond.i, label %removeX11InputMethodGRefFromList.exit, label %.preheader.i.preheader

.preheader.i.preheader:                           ; preds = %35
  %41 = load ptr, ptr %38, align 8
  %42 = icmp eq ptr %41, %37
  br i1 %42, label %.preheader.i._crit_edge.thread, label %.lr.ph

.preheader.i:                                     ; preds = %.lr.ph
  %43 = load ptr, ptr %46, align 8
  %44 = icmp eq ptr %43, %37
  br i1 %44, label %.preheader.i._crit_edge, label %.lr.ph, !llvm.loop !12

.lr.ph:                                           ; preds = %.preheader.i.preheader, %.preheader.i
  %.018.i30 = phi ptr [ %46, %.preheader.i ], [ %38, %.preheader.i.preheader ]
  %45 = getelementptr inbounds i8, ptr %.018.i30, i64 8
  %46 = load ptr, ptr %45, align 8
  %cond.i = icmp eq ptr %46, null
  br i1 %cond.i, label %removeX11InputMethodGRefFromList.exit, label %.preheader.i, !llvm.loop !12

.preheader.i._crit_edge:                          ; preds = %.preheader.i
  %47 = icmp eq ptr %46, %38
  br i1 %47, label %.preheader.i._crit_edge.thread, label %50

.preheader.i._crit_edge.thread:                   ; preds = %.preheader.i.preheader, %.preheader.i._crit_edge
  %.018.i.lcssa37 = phi ptr [ %46, %.preheader.i._crit_edge ], [ %38, %.preheader.i.preheader ]
  %48 = getelementptr inbounds i8, ptr %38, i64 8
  %49 = load ptr, ptr %48, align 8
  store ptr %49, ptr @x11InputMethodGRefListHead, align 8
  br label %54

50:                                               ; preds = %.preheader.i._crit_edge
  %51 = getelementptr inbounds i8, ptr %46, i64 8
  %52 = load ptr, ptr %51, align 8
  %53 = getelementptr inbounds i8, ptr %.018.i30, i64 8
  store ptr %52, ptr %53, align 8
  br label %54

54:                                               ; preds = %50, %.preheader.i._crit_edge.thread
  %.018.i.lcssa36 = phi ptr [ %46, %50 ], [ %.018.i.lcssa37, %.preheader.i._crit_edge.thread ]
  tail call void @free(ptr noundef nonnull %.018.i.lcssa36) #14
  %.pre = load ptr, ptr %36, align 8
  br label %removeX11InputMethodGRefFromList.exit

removeX11InputMethodGRefFromList.exit:            ; preds = %.lr.ph, %35, %54
  %55 = phi ptr [ %37, %35 ], [ %.pre, %54 ], [ %37, %.lr.ph ]
  %56 = load ptr, ptr %0, align 8
  %57 = getelementptr inbounds i8, ptr %56, i64 176
  %58 = load ptr, ptr %57, align 8
  tail call void %58(ptr noundef nonnull %0, ptr noundef %55) #14
  br label %59

59:                                               ; preds = %removeX11InputMethodGRefFromList.exit, %34
  %60 = getelementptr inbounds i8, ptr %1, i64 48
  %61 = load ptr, ptr %60, align 8
  %.not27 = icmp eq ptr %61, null
  br i1 %.not27, label %63, label %62

62:                                               ; preds = %59
  tail call void @free(ptr noundef nonnull %61) #14
  br label %63

63:                                               ; preds = %62, %59
  tail call void @free(ptr noundef nonnull %1) #14
  ret void
}